	.file	"CPU.cpp"
	.text
.Ltext0:
	.file 0 "/mnt/d/git/2024spring-CompArchH/Lab5/CPU" "./CPU.cpp"
	.p2align 4
	.globl	_Z13gemm_baselinePfS_S_
	.type	_Z13gemm_baselinePfS_S_, @function
_Z13gemm_baselinePfS_S_:
.LVL0:
.LFB13848:
	.file 1 "./CPU.cpp"
	.loc 1 57 50 view -0
	.cfi_startproc
	.loc 1 57 50 is_stmt 0 view .LVU1
	endbr64
	.loc 1 58 5 is_stmt 1 view .LVU2
.LVL1:
.LBB222:
	.loc 1 58 23 view .LVU3
.LBE222:
	.loc 1 57 50 is_stmt 0 view .LVU4
	pushq	%r12
	.cfi_def_cfa_offset 16
	.cfi_offset 12, -16
.LBB229:
	.loc 1 58 23 view .LVU5
	movl	N(%rip), %r12d
.LBE229:
	.loc 1 57 50 view .LVU6
	pushq	%rbp
	.cfi_def_cfa_offset 24
	.cfi_offset 6, -24
	pushq	%rbx
	.cfi_def_cfa_offset 32
	.cfi_offset 3, -32
.LBB230:
	.loc 1 58 23 view .LVU7
	testl	%r12d, %r12d
	jle	.L8
	movslq	%r12d, %rcx
	leal	-1(%r12), %eax
	movq	%rsi, %rbx
	movq	%rdi, %r9
	movq	%rdx, %r10
	salq	$2, %rcx
	leaq	4(%rdi,%rax,4), %rsi
.LVL2:
	.loc 1 58 14 view .LVU8
	xorl	%ebp, %ebp
	vxorps	%xmm1, %xmm1, %xmm1
	movl	%r12d, %r11d
.LVL3:
	.p2align 4,,10
	.p2align 3
.L3:
	.loc 1 58 14 view .LVU9
	movq	%rbx, %r8
.LBB223:
.LBB224:
	.loc 1 60 19 view .LVU10
	xorl	%edi, %edi
	.p2align 4,,10
	.p2align 3
.L6:
.LVL4:
.LBB225:
	.loc 1 61 31 is_stmt 1 view .LVU11
.LBE225:
.LBE224:
.LBE223:
.LBE230:
	.loc 1 57 50 is_stmt 0 view .LVU12
	movq	%r8, %rdx
	movq	%r9, %rax
.LBB231:
.LBB228:
.LBB227:
	.loc 1 60 19 view .LVU13
	vmovaps	%xmm1, %xmm0
.LVL5:
	.p2align 4,,10
	.p2align 3
.L4:
.LBB226:
	.loc 1 62 17 is_stmt 1 discriminator 3 view .LVU14
	.loc 1 62 21 is_stmt 0 discriminator 3 view .LVU15
	vmovss	(%rax), %xmm2
	.loc 1 61 31 discriminator 3 view .LVU16
	addq	$4, %rax
	.loc 1 62 21 discriminator 3 view .LVU17
	vfmadd231ss	(%rdx), %xmm2, %xmm0
.LVL6:
	.loc 1 61 13 is_stmt 1 discriminator 3 view .LVU18
	.loc 1 61 31 discriminator 3 view .LVU19
	addq	%rcx, %rdx
	cmpq	%rsi, %rax
	jne	.L4
.LBE226:
	.loc 1 64 13 discriminator 2 view .LVU20
	.loc 1 64 26 is_stmt 0 discriminator 2 view .LVU21
	vmovss	%xmm0, (%r10,%rdi,4)
.LBE227:
	.loc 1 59 9 is_stmt 1 discriminator 2 view .LVU22
.LVL7:
	.loc 1 59 27 discriminator 2 view .LVU23
	incq	%rdi
.LVL8:
	.loc 1 59 27 is_stmt 0 discriminator 2 view .LVU24
	addq	$4, %r8
	cmpq	%rdi, %r11
	jne	.L6
.LBE228:
	.loc 1 58 5 is_stmt 1 discriminator 2 view .LVU25
	incl	%ebp
.LVL9:
	.loc 1 58 23 discriminator 2 view .LVU26
	addq	%rcx, %r10
	addq	%rcx, %r9
	addq	%rcx, %rsi
	cmpl	%r12d, %ebp
	jne	.L3
.LVL10:
.L8:
	.loc 1 58 23 is_stmt 0 discriminator 2 view .LVU27
.LBE231:
	.loc 1 68 1 view .LVU28
	popq	%rbx
	.cfi_def_cfa_offset 24
	popq	%rbp
	.cfi_def_cfa_offset 16
	popq	%r12
	.cfi_def_cfa_offset 8
	ret
	.cfi_endproc
.LFE13848:
	.size	_Z13gemm_baselinePfS_S_, .-_Z13gemm_baselinePfS_S_
	.section	.rodata.str1.1,"aMS",@progbits,1
.LC3:
	.string	"error\n"
.LC4:
	.string	"correct\n"
	.text
	.p2align 4
	.globl	_Z11gemm_verifyPfS_
	.type	_Z11gemm_verifyPfS_, @function
_Z11gemm_verifyPfS_:
.LVL11:
.LFB13849:
	.loc 1 70 38 is_stmt 1 view -0
	.cfi_startproc
	.loc 1 70 38 is_stmt 0 view .LVU30
	endbr64
	.loc 1 71 5 is_stmt 1 view .LVU31
.LVL12:
.LBB248:
	.loc 1 71 23 view .LVU32
	.loc 1 71 27 is_stmt 0 view .LVU33
	movl	N(%rip), %edx
	imull	%edx, %edx
	.loc 1 71 23 view .LVU34
	testl	%edx, %edx
	je	.L12
	vmovsd	.LC2(%rip), %xmm1
	movslq	%edx, %rdx
	xorl	%eax, %eax
	vmovss	.LC1(%rip), %xmm2
	jmp	.L15
.LVL13:
	.p2align 4,,10
	.p2align 3
.L21:
	.loc 1 71 5 is_stmt 1 discriminator 2 view .LVU35
	.loc 1 71 23 discriminator 2 view .LVU36
	incq	%rax
.LVL14:
	.loc 1 71 23 is_stmt 0 discriminator 2 view .LVU37
	cmpq	%rax, %rdx
	je	.L12
.L15:
.LVL15:
	.loc 1 73 9 is_stmt 1 view .LVU38
.LBB249:
.LBI249:
	.file 2 "/usr/include/c++/11/bits/std_abs.h"
	.loc 2 75 3 view .LVU39
.LBB250:
	.loc 2 76 5 view .LVU40
	.loc 2 76 5 is_stmt 0 view .LVU41
.LBE250:
.LBE249:
	.loc 1 73 16 view .LVU42
	vmovss	(%rdi,%rax,4), %xmm0
	vsubss	(%rsi,%rax,4), %xmm0, %xmm0
.LBB252:
.LBB251:
	.loc 2 76 31 view .LVU43
	vandps	%xmm2, %xmm0, %xmm0
.LBE251:
.LBE252:
	.loc 1 73 16 view .LVU44
	vcvtss2sd	%xmm0, %xmm0, %xmm0
	.loc 1 73 9 view .LVU45
	vcomisd	%xmm1, %xmm0
	jbe	.L21
.LBE248:
.LBB253:
.LBI253:
	.loc 1 70 6 is_stmt 1 view .LVU46
.LVL16:
.LBB254:
	.loc 1 74 13 view .LVU47
.LBB255:
.LBI255:
	.file 3 "/usr/include/c++/11/ostream"
	.loc 3 611 5 view .LVU48
.LBB256:
	.loc 3 616 18 is_stmt 0 view .LVU49
	movl	$6, %edx
	leaq	.LC3(%rip), %rsi
.LVL17:
	.loc 3 616 18 view .LVU50
	leaq	_ZSt4cout(%rip), %rdi
.LVL18:
	.loc 3 616 18 view .LVU51
	jmp	_ZSt16__ostream_insertIcSt11char_traitsIcEERSt13basic_ostreamIT_T0_ES6_PKS3_l@PLT
.LVL19:
	.p2align 4,,10
	.p2align 3
.L12:
	.loc 3 616 18 view .LVU52
.LBE256:
.LBE255:
.LBE254:
.LBE253:
	.loc 1 78 5 is_stmt 1 view .LVU53
.LBB257:
.LBI257:
	.loc 3 611 5 view .LVU54
.LBB258:
	.loc 3 616 18 is_stmt 0 view .LVU55
	movl	$8, %edx
	leaq	.LC4(%rip), %rsi
.LVL20:
	.loc 3 616 18 view .LVU56
	leaq	_ZSt4cout(%rip), %rdi
.LVL21:
	.loc 3 616 18 view .LVU57
	jmp	_ZSt16__ostream_insertIcSt11char_traitsIcEERSt13basic_ostreamIT_T0_ES6_PKS3_l@PLT
.LVL22:
.LBE258:
.LBE257:
	.cfi_endproc
.LFE13849:
	.size	_Z11gemm_verifyPfS_, .-_Z11gemm_verifyPfS_
	.p2align 4
	.globl	_Z8gemm_avxPfS_S_
	.type	_Z8gemm_avxPfS_S_, @function
_Z8gemm_avxPfS_S_:
.LVL23:
.LFB13850:
	.loc 1 82 45 is_stmt 1 view -0
	.cfi_startproc
	.loc 1 82 45 is_stmt 0 view .LVU59
	endbr64
	pushq	%rbp
	.cfi_def_cfa_offset 16
	.cfi_offset 6, -16
	movq	%rsp, %rbp
	.cfi_def_cfa_register 6
	pushq	%r14
	.cfi_offset 14, -24
	movq	%rsi, %r14
	.loc 1 83 5 is_stmt 1 view .LVU60
	.loc 1 82 45 is_stmt 0 view .LVU61
	pushq	%r13
	.cfi_offset 13, -32
	movq	%rdx, %r13
	pushq	%r12
	.cfi_offset 12, -40
	movq	%rdi, %r12
	pushq	%rbx
	.cfi_offset 3, -48
	.loc 1 83 38 view .LVU62
	movl	N(%rip), %ebx
	movl	%ebx, %edi
.LVL24:
	.loc 1 83 38 view .LVU63
	imull	%ebx, %edi
	.loc 1 82 45 view .LVU64
	andq	$-32, %rsp
	.loc 1 83 38 view .LVU65
	movslq	%edi, %rdi
	.loc 1 83 35 view .LVU66
	salq	$2, %rdi
	call	malloc@PLT
.LVL25:
	.loc 1 83 35 view .LVU67
	movq	%rax, %r10
.LVL26:
	.loc 1 84 5 is_stmt 1 view .LVU68
.LBB259:
	.loc 1 84 23 view .LVU69
	testl	%ebx, %ebx
	jle	.L23
	leal	-1(%rbx), %eax
.LVL27:
	.loc 1 84 23 is_stmt 0 view .LVU70
	movslq	%ebx, %rdi
	movq	$-4, %r9
	movq	%r14, %r8
	salq	$2, %rax
	salq	$2, %rdi
	.loc 1 84 14 view .LVU71
	xorl	%esi, %esi
	leaq	4(%rax), %r11
	subq	%rax, %r9
	leaq	(%r11,%r10), %rcx
.LVL28:
	.p2align 4,,10
	.p2align 3
.L25:
	.loc 1 84 14 view .LVU72
	leaq	(%r9,%rcx), %rax
	movq	%r8, %rdx
	.p2align 4,,10
	.p2align 3
.L24:
.LVL29:
.LBB260:
	.loc 1 86 13 is_stmt 1 discriminator 3 view .LVU73
	.loc 1 86 30 is_stmt 0 discriminator 3 view .LVU74
	vmovss	(%rdx), %xmm0
	.loc 1 85 27 discriminator 3 view .LVU75
	addq	$4, %rax
	.loc 1 85 27 discriminator 3 view .LVU76
	addq	%rdi, %rdx
	.loc 1 86 30 discriminator 3 view .LVU77
	vmovss	%xmm0, -4(%rax)
	.loc 1 85 9 is_stmt 1 discriminator 3 view .LVU78
	.loc 1 85 27 discriminator 3 view .LVU79
	cmpq	%rcx, %rax
	jne	.L24
.LBE260:
	.loc 1 84 5 discriminator 2 view .LVU80
	incl	%esi
.LVL30:
	.loc 1 84 23 discriminator 2 view .LVU81
	addq	$4, %r8
	leaq	(%rax,%rdi), %rcx
	cmpl	%esi, %ebx
	jne	.L25
	leaq	0(%r13,%r11), %r8
	movq	%r12, %rcx
	.loc 1 84 23 is_stmt 0 view .LVU82
	xorl	%r11d, %r11d
.LVL31:
	.p2align 4,,10
	.p2align 3
.L26:
	.loc 1 84 23 view .LVU83
.LBE259:
.LBB261:
.LBB262:
	.loc 1 91 27 is_stmt 1 view .LVU84
	leaq	(%r8,%r9), %rsi
.LBB263:
	.loc 1 92 17 is_stmt 0 view .LVU85
	movq	%r10, %rdx
.LVL32:
	.p2align 4,,10
	.p2align 3
.L29:
.LBB264:
	.loc 1 93 31 is_stmt 1 view .LVU86
.LBE264:
.LBE263:
.LBE262:
.LBE261:
.LBB276:
	.loc 1 84 14 is_stmt 0 view .LVU87
	xorl	%eax, %eax
.LBE276:
.LBB277:
.LBB275:
.LBB272:
	.loc 1 92 17 view .LVU88
	vxorps	%xmm0, %xmm0, %xmm0
.LVL33:
	.p2align 4,,10
	.p2align 3
.L27:
.LBB271:
	.loc 1 94 17 is_stmt 1 view .LVU89
.LBB265:
.LBI265:
	.file 4 "/usr/lib/gcc/x86_64-linux-gnu/11/include/avxintrin.h"
	.loc 4 903 1 view .LVU90
.LBB266:
	.loc 4 905 3 view .LVU91
	.loc 4 905 3 is_stmt 0 view .LVU92
.LBE266:
.LBE265:
	.loc 1 95 17 is_stmt 1 view .LVU93
.LBB267:
.LBI267:
	.loc 4 903 1 view .LVU94
.LBB268:
	.loc 4 905 3 view .LVU95
	.loc 4 905 3 is_stmt 0 view .LVU96
.LBE268:
.LBE267:
	.loc 1 96 17 is_stmt 1 view .LVU97
.LBB269:
.LBI269:
	.file 5 "/usr/lib/gcc/x86_64-linux-gnu/11/include/fmaintrin.h"
	.loc 5 63 1 view .LVU98
.LBB270:
	.loc 5 65 3 view .LVU99
	.loc 5 65 10 is_stmt 0 view .LVU100
	vmovups	(%rcx,%rax,4), %ymm4
	vfmadd231ps	(%rdx,%rax,4), %ymm4, %ymm0
.LVL34:
	.loc 5 65 10 view .LVU101
.LBE270:
.LBE269:
	.loc 1 93 13 is_stmt 1 view .LVU102
	.loc 1 93 31 view .LVU103
	addq	$8, %rax
.LVL35:
	.loc 1 93 31 is_stmt 0 view .LVU104
	cmpl	%eax, %ebx
	jg	.L27
.LBE271:
	.loc 1 98 13 is_stmt 1 discriminator 2 view .LVU105
	.loc 1 98 42 is_stmt 0 discriminator 2 view .LVU106
	vshufps	$85, %xmm0, %xmm0, %xmm3
	.loc 1 98 35 discriminator 2 view .LVU107
	vaddss	%xmm3, %xmm0, %xmm1
	.loc 1 98 51 discriminator 2 view .LVU108
	vunpckhps	%xmm0, %xmm0, %xmm3
.LBE272:
	.loc 1 91 27 discriminator 2 view .LVU109
	addq	$4, %rsi
.LBB273:
	.loc 1 98 60 discriminator 2 view .LVU110
	vshufps	$255, %xmm0, %xmm0, %xmm2
	.loc 1 98 69 discriminator 2 view .LVU111
	vextractf128	$0x1, %ymm0, %xmm0
.LVL36:
	.loc 1 98 69 discriminator 2 view .LVU112
.LBE273:
	.loc 1 91 27 discriminator 2 view .LVU113
	addq	%rdi, %rdx
.LVL37:
.LBB274:
	.loc 1 98 44 discriminator 2 view .LVU114
	vaddss	%xmm3, %xmm1, %xmm1
	.loc 1 98 53 discriminator 2 view .LVU115
	vaddss	%xmm2, %xmm1, %xmm1
	.loc 1 98 78 discriminator 2 view .LVU116
	vshufps	$85, %xmm0, %xmm0, %xmm2
	.loc 1 98 62 discriminator 2 view .LVU117
	vaddss	%xmm0, %xmm1, %xmm1
	.loc 1 98 71 discriminator 2 view .LVU118
	vaddss	%xmm2, %xmm1, %xmm1
	.loc 1 98 87 discriminator 2 view .LVU119
	vunpckhps	%xmm0, %xmm0, %xmm2
	.loc 1 98 96 discriminator 2 view .LVU120
	vshufps	$255, %xmm0, %xmm0, %xmm0
	.loc 1 98 80 discriminator 2 view .LVU121
	vaddss	%xmm2, %xmm1, %xmm1
	.loc 1 98 89 discriminator 2 view .LVU122
	vaddss	%xmm0, %xmm1, %xmm1
	.loc 1 98 26 discriminator 2 view .LVU123
	vmovss	%xmm1, -4(%rsi)
.LVL38:
	.loc 1 98 26 discriminator 2 view .LVU124
.LBE274:
	.loc 1 91 9 is_stmt 1 discriminator 2 view .LVU125
	.loc 1 91 27 discriminator 2 view .LVU126
	cmpq	%rsi, %r8
	jne	.L29
.LBE275:
	.loc 1 90 5 discriminator 2 view .LVU127
	incl	%r11d
.LVL39:
	.loc 1 90 23 discriminator 2 view .LVU128
	addq	%rdi, %r8
	addq	%rdi, %rcx
	cmpl	%r11d, %ebx
	jne	.L26
	vzeroupper
.LVL40:
.L23:
	.loc 1 90 23 is_stmt 0 discriminator 2 view .LVU129
.LBE277:
	.loc 1 101 5 is_stmt 1 view .LVU130
	.loc 1 102 1 is_stmt 0 view .LVU131
	leaq	-32(%rbp), %rsp
	.loc 1 101 9 view .LVU132
	movq	%r10, %rdi
	.loc 1 102 1 view .LVU133
	popq	%rbx
	popq	%r12
.LVL41:
	.loc 1 102 1 view .LVU134
	popq	%r13
.LVL42:
	.loc 1 102 1 view .LVU135
	popq	%r14
.LVL43:
	.loc 1 102 1 view .LVU136
	popq	%rbp
	.cfi_def_cfa 7, 8
	.loc 1 101 9 view .LVU137
	jmp	free@PLT
.LVL44:
	.loc 1 101 9 view .LVU138
	.cfi_endproc
.LFE13850:
	.size	_Z8gemm_avxPfS_S_, .-_Z8gemm_avxPfS_S_
	.section	.rodata.str1.1
.LC6:
	.string	"baseline time: "
.LC7:
	.string	"s\n"
.LC8:
	.string	"avx time: "
.LC9:
	.string	"avx block time: "
	.section	.text.startup,"ax",@progbits
	.p2align 4
	.globl	main
	.type	main, @function
main:
.LFB13838:
	.loc 1 12 16 is_stmt 1 view -0
	.cfi_startproc
	endbr64
	.loc 1 14 5 view .LVU140
	.loc 1 12 16 is_stmt 0 view .LVU141
	pushq	%r15
	.cfi_def_cfa_offset 16
	.cfi_offset 15, -16
	pushq	%r14
	.cfi_def_cfa_offset 24
	.cfi_offset 14, -24
	pushq	%r13
	.cfi_def_cfa_offset 32
	.cfi_offset 13, -32
	pushq	%r12
	.cfi_def_cfa_offset 40
	.cfi_offset 12, -40
	pushq	%rbp
	.cfi_def_cfa_offset 48
	.cfi_offset 6, -48
	pushq	%rbx
	.cfi_def_cfa_offset 56
	.cfi_offset 3, -56
	subq	$24, %rsp
	.cfi_def_cfa_offset 80
	.loc 1 14 26 view .LVU142
	movl	N(%rip), %edi
	imull	%edi, %edi
	movslq	%edi, %rdi
	.loc 1 14 29 view .LVU143
	salq	$2, %rdi
	call	_Znam@PLT
.LVL45:
	.loc 1 15 26 view .LVU144
	movl	N(%rip), %edi
	.loc 1 14 29 view .LVU145
	movq	%rax, %r12
.LVL46:
	.loc 1 15 5 is_stmt 1 view .LVU146
	.loc 1 15 26 is_stmt 0 view .LVU147
	imull	%edi, %edi
	movslq	%edi, %rdi
	.loc 1 15 29 view .LVU148
	salq	$2, %rdi
	call	_Znam@PLT
.LVL47:
	.loc 1 16 26 view .LVU149
	movl	N(%rip), %edi
	.loc 1 15 29 view .LVU150
	movq	%rax, %rbp
.LVL48:
	.loc 1 16 5 is_stmt 1 view .LVU151
	.loc 1 16 26 is_stmt 0 view .LVU152
	imull	%edi, %edi
	movslq	%edi, %rdi
	.loc 1 16 29 view .LVU153
	salq	$2, %rdi
	call	_Znam@PLT
.LVL49:
	.loc 1 17 26 view .LVU154
	movl	N(%rip), %edi
	.loc 1 16 29 view .LVU155
	movq	%rax, %r13
.LVL50:
	.loc 1 17 5 is_stmt 1 view .LVU156
	.loc 1 17 26 is_stmt 0 view .LVU157
	imull	%edi, %edi
	movslq	%edi, %rdi
	.loc 1 17 29 view .LVU158
	salq	$2, %rdi
	call	_Znam@PLT
.LVL51:
	.loc 1 18 26 view .LVU159
	movl	N(%rip), %edi
	.loc 1 17 29 view .LVU160
	movq	%rax, %r15
.LVL52:
	.loc 1 18 5 is_stmt 1 view .LVU161
	.loc 1 18 26 is_stmt 0 view .LVU162
	imull	%edi, %edi
	movslq	%edi, %rdi
	.loc 1 18 29 view .LVU163
	salq	$2, %rdi
	call	_Znam@PLT
.LVL53:
	.loc 1 18 29 view .LVU164
	movq	%rax, %r14
.LVL54:
.LBB278:
	.loc 1 20 23 is_stmt 1 view .LVU165
	.loc 1 20 27 is_stmt 0 view .LVU166
	movl	N(%rip), %eax
	imull	%eax, %eax
	.loc 1 20 23 view .LVU167
	testl	%eax, %eax
	je	.L36
	xorl	%ebx, %ebx
.LVL55:
	.p2align 4,,10
	.p2align 3
.L37:
	.loc 1 21 9 is_stmt 1 discriminator 3 view .LVU168
	.loc 1 21 20 is_stmt 0 discriminator 3 view .LVU169
	call	rand@PLT
.LVL56:
	.loc 1 21 14 discriminator 3 view .LVU170
	vxorps	%xmm1, %xmm1, %xmm1
	.loc 1 21 23 discriminator 3 view .LVU171
	movslq	%eax, %rdx
	movl	%eax, %ecx
	imulq	$1374389535, %rdx, %rdx
	sarl	$31, %ecx
	sarq	$37, %rdx
	subl	%ecx, %edx
	imull	$100, %edx, %edx
	subl	%edx, %eax
	.loc 1 21 14 discriminator 3 view .LVU172
	vcvtsi2ssl	%eax, %xmm1, %xmm0
	vmovss	%xmm0, (%r12,%rbx,4)
	.loc 1 22 9 is_stmt 1 discriminator 3 view .LVU173
	.loc 1 22 20 is_stmt 0 discriminator 3 view .LVU174
	call	rand@PLT
.LVL57:
	.loc 1 22 14 discriminator 3 view .LVU175
	vxorps	%xmm1, %xmm1, %xmm1
	.loc 1 22 23 discriminator 3 view .LVU176
	movslq	%eax, %rdx
	movl	%eax, %ecx
	imulq	$1374389535, %rdx, %rdx
	sarl	$31, %ecx
	sarq	$37, %rdx
	subl	%ecx, %edx
	imull	$100, %edx, %edx
	subl	%edx, %eax
	.loc 1 22 14 discriminator 3 view .LVU177
	vcvtsi2ssl	%eax, %xmm1, %xmm0
	.loc 1 20 27 discriminator 3 view .LVU178
	movl	N(%rip), %eax
	imull	%eax, %eax
	.loc 1 22 14 discriminator 3 view .LVU179
	vmovss	%xmm0, 0(%rbp,%rbx,4)
	.loc 1 20 5 is_stmt 1 discriminator 3 view .LVU180
.LVL58:
	.loc 1 20 23 discriminator 3 view .LVU181
	incq	%rbx
.LVL59:
	.loc 1 20 23 is_stmt 0 discriminator 3 view .LVU182
	cmpl	%ebx, %eax
	jg	.L37
.L36:
	.loc 1 20 23 discriminator 3 view .LVU183
.LBE278:
	.loc 1 29 5 is_stmt 1 view .LVU184
	.loc 1 29 57 is_stmt 0 view .LVU185
	call	_ZNSt6chrono3_V212system_clock3nowEv@PLT
.LVL60:
	.loc 1 30 18 view .LVU186
	movq	%r13, %rdx
	movq	%rbp, %rsi
	movq	%r12, %rdi
	.loc 1 29 57 view .LVU187
	movq	%rax, %rbx
.LVL61:
	.loc 1 30 5 is_stmt 1 view .LVU188
	.loc 1 30 18 is_stmt 0 view .LVU189
	call	_Z13gemm_baselinePfS_S_
.LVL62:
	.loc 1 31 5 is_stmt 1 view .LVU190
	.loc 1 31 55 is_stmt 0 view .LVU191
	call	_ZNSt6chrono3_V212system_clock3nowEv@PLT
.LVL63:
	.loc 1 32 5 is_stmt 1 view .LVU192
.LBB279:
.LBI279:
	.file 6 "/usr/include/c++/11/chrono"
	.loc 6 1042 7 view .LVU193
.LBB280:
.LBI280:
	.loc 6 660 7 view .LVU194
.LBB281:
.LBB282:
.LBI282:
	.loc 6 521 23 view .LVU195
	.loc 6 521 23 is_stmt 0 view .LVU196
.LBE282:
.LBE281:
.LBE280:
.LBE279:
.LBB285:
.LBI285:
	.loc 6 529 14 is_stmt 1 view .LVU197
.LBB286:
.LBI286:
	.loc 6 267 7 view .LVU198
.LBB287:
.LBB288:
.LBI288:
	.loc 6 223 4 view .LVU199
.LBE288:
.LBE287:
.LBE286:
.LBE285:
	.loc 1 33 18 is_stmt 0 view .LVU200
	leaq	_ZSt4cout(%rip), %r9
.LBB299:
.LBB296:
.LBB294:
.LBB292:
.LBB289:
	.loc 6 227 8 view .LVU201
	vxorpd	%xmm2, %xmm2, %xmm2
.LBE289:
.LBE292:
.LBE294:
.LBE296:
.LBE299:
	.loc 1 33 18 view .LVU202
	leaq	.LC6(%rip), %rsi
	movq	%r9, %rdi
.LBB300:
.LBB284:
.LBB283:
	.loc 6 666 34 view .LVU203
	subq	%rbx, %rax
.LVL64:
	.loc 6 666 34 view .LVU204
.LBE283:
.LBE284:
.LBE300:
.LBB301:
.LBB297:
.LBB295:
.LBB293:
.LBB291:
	.loc 6 227 8 view .LVU205
	vcvtsi2sdq	%rax, %xmm2, %xmm0
	.loc 6 227 38 view .LVU206
	vdivsd	.LC5(%rip), %xmm0, %xmm0
	vmovsd	%xmm0, 8(%rsp)
.LBB290:
.LBI290:
	.loc 6 521 23 is_stmt 1 view .LVU207
.LVL65:
	.loc 6 521 23 is_stmt 0 view .LVU208
.LBE290:
.LBE291:
.LBE293:
.LBE295:
.LBE297:
.LBB298:
.LBI298:
	.loc 6 537 2 is_stmt 1 view .LVU209
	.loc 6 537 2 is_stmt 0 view .LVU210
.LBE298:
.LBE301:
	.loc 1 33 5 is_stmt 1 view .LVU211
	.loc 1 33 18 is_stmt 0 view .LVU212
	call	_ZStlsISt11char_traitsIcEERSt13basic_ostreamIcT_ES5_PKc@PLT
.LVL66:
.LBB302:
.LBB303:
	.loc 3 221 25 view .LVU213
	vmovsd	8(%rsp), %xmm0
.LBE303:
.LBE302:
	.loc 1 33 18 view .LVU214
	movq	%rax, %rdi
.LVL67:
.LBB306:
.LBI302:
	.loc 3 220 7 is_stmt 1 view .LVU215
.LBB304:
	.loc 3 221 25 is_stmt 0 view .LVU216
	call	_ZNSo9_M_insertIdEERSoT_@PLT
.LVL68:
	.loc 3 221 25 view .LVU217
.LBE304:
.LBE306:
	.loc 1 33 58 view .LVU218
	leaq	.LC7(%rip), %r8
	movq	%r8, %rsi
.LBB307:
.LBB305:
	.loc 3 221 25 view .LVU219
	movq	%rax, %rdi
.LVL69:
	.loc 3 221 25 view .LVU220
.LBE305:
.LBE307:
	.loc 1 33 58 view .LVU221
	call	_ZStlsISt11char_traitsIcEERSt13basic_ostreamIcT_ES5_PKc@PLT
.LVL70:
	.loc 1 35 5 is_stmt 1 view .LVU222
	.loc 1 35 52 is_stmt 0 view .LVU223
	call	_ZNSt6chrono3_V212system_clock3nowEv@PLT
.LVL71:
	.loc 1 36 13 view .LVU224
	movq	%r15, %rdx
	movq	%rbp, %rsi
	movq	%r12, %rdi
	.loc 1 35 52 view .LVU225
	movq	%rax, %rbx
.LVL72:
	.loc 1 36 5 is_stmt 1 view .LVU226
	.loc 1 36 13 is_stmt 0 view .LVU227
	call	_Z8gemm_avxPfS_S_
.LVL73:
	.loc 1 37 5 is_stmt 1 view .LVU228
	.loc 1 37 50 is_stmt 0 view .LVU229
	call	_ZNSt6chrono3_V212system_clock3nowEv@PLT
.LVL74:
	.loc 1 38 5 is_stmt 1 view .LVU230
.LBB308:
.LBI308:
	.loc 6 1042 7 view .LVU231
.LBB309:
.LBI309:
	.loc 6 660 7 view .LVU232
.LBB310:
.LBB311:
.LBI311:
	.loc 6 521 23 view .LVU233
	.loc 6 521 23 is_stmt 0 view .LVU234
.LBE311:
.LBE310:
.LBE309:
.LBE308:
.LBB314:
.LBI314:
	.loc 6 529 14 is_stmt 1 view .LVU235
.LBB315:
.LBI315:
	.loc 6 267 7 view .LVU236
.LBB316:
.LBB317:
.LBI317:
	.loc 6 223 4 view .LVU237
.LBE317:
.LBE316:
.LBE315:
.LBE314:
	.loc 1 39 18 is_stmt 0 view .LVU238
	leaq	_ZSt4cout(%rip), %r9
.LBB328:
.LBB325:
.LBB323:
.LBB321:
.LBB318:
	.loc 6 227 8 view .LVU239
	vxorpd	%xmm2, %xmm2, %xmm2
.LBE318:
.LBE321:
.LBE323:
.LBE325:
.LBE328:
	.loc 1 39 18 view .LVU240
	leaq	.LC8(%rip), %rsi
	movq	%r9, %rdi
.LBB329:
.LBB313:
.LBB312:
	.loc 6 666 34 view .LVU241
	subq	%rbx, %rax
.LVL75:
	.loc 6 666 34 view .LVU242
.LBE312:
.LBE313:
.LBE329:
.LBB330:
.LBB326:
.LBB324:
.LBB322:
.LBB320:
	.loc 6 227 8 view .LVU243
	vcvtsi2sdq	%rax, %xmm2, %xmm0
	.loc 6 227 38 view .LVU244
	vdivsd	.LC5(%rip), %xmm0, %xmm0
	vmovsd	%xmm0, 8(%rsp)
.LVL76:
.LBB319:
.LBI319:
	.loc 6 521 23 is_stmt 1 view .LVU245
	.loc 6 521 23 is_stmt 0 view .LVU246
.LBE319:
.LBE320:
.LBE322:
.LBE324:
.LBE326:
.LBB327:
.LBI327:
	.loc 6 537 2 is_stmt 1 view .LVU247
	.loc 6 537 2 is_stmt 0 view .LVU248
.LBE327:
.LBE330:
	.loc 1 39 5 is_stmt 1 view .LVU249
	.loc 1 39 18 is_stmt 0 view .LVU250
	call	_ZStlsISt11char_traitsIcEERSt13basic_ostreamIcT_ES5_PKc@PLT
.LVL77:
.LBB331:
.LBB332:
	.loc 3 221 25 view .LVU251
	vmovsd	8(%rsp), %xmm0
.LBE332:
.LBE331:
	.loc 1 39 18 view .LVU252
	movq	%rax, %rdi
.LVL78:
.LBB335:
.LBI331:
	.loc 3 220 7 is_stmt 1 view .LVU253
.LBB333:
	.loc 3 221 25 is_stmt 0 view .LVU254
	call	_ZNSo9_M_insertIdEERSoT_@PLT
.LVL79:
	.loc 3 221 25 view .LVU255
.LBE333:
.LBE335:
	.loc 1 39 53 view .LVU256
	leaq	.LC7(%rip), %r8
	movq	%r8, %rsi
.LBB336:
.LBB334:
	.loc 3 221 25 view .LVU257
	movq	%rax, %rdi
.LVL80:
	.loc 3 221 25 view .LVU258
.LBE334:
.LBE336:
	.loc 1 39 53 view .LVU259
	call	_ZStlsISt11char_traitsIcEERSt13basic_ostreamIcT_ES5_PKc@PLT
.LVL81:
	.loc 1 41 5 is_stmt 1 view .LVU260
	.loc 1 41 52 is_stmt 0 view .LVU261
	call	_ZNSt6chrono3_V212system_clock3nowEv@PLT
.LVL82:
	.loc 1 42 19 view .LVU262
	movq	%r14, %rdx
	movq	%rbp, %rsi
	movq	%r12, %rdi
	.loc 1 41 52 view .LVU263
	movq	%rax, %rbx
.LVL83:
	.loc 1 42 5 is_stmt 1 view .LVU264
	.loc 1 42 19 is_stmt 0 view .LVU265
	call	_Z14gemm_avx_blockPfS_S_@PLT
.LVL84:
	.loc 1 43 5 is_stmt 1 view .LVU266
	.loc 1 43 50 is_stmt 0 view .LVU267
	call	_ZNSt6chrono3_V212system_clock3nowEv@PLT
.LVL85:
	.loc 1 44 5 is_stmt 1 view .LVU268
.LBB337:
.LBI337:
	.loc 6 1042 7 view .LVU269
.LBB338:
.LBI338:
	.loc 6 660 7 view .LVU270
.LBB339:
.LBB340:
.LBI340:
	.loc 6 521 23 view .LVU271
	.loc 6 521 23 is_stmt 0 view .LVU272
.LBE340:
.LBE339:
.LBE338:
.LBE337:
.LBB343:
.LBI343:
	.loc 6 529 14 is_stmt 1 view .LVU273
.LBB344:
.LBI344:
	.loc 6 267 7 view .LVU274
.LBB345:
.LBB346:
.LBI346:
	.loc 6 223 4 view .LVU275
.LBE346:
.LBE345:
.LBE344:
.LBE343:
	.loc 1 45 18 is_stmt 0 view .LVU276
	leaq	_ZSt4cout(%rip), %r9
.LBB357:
.LBB354:
.LBB352:
.LBB350:
.LBB347:
	.loc 6 227 8 view .LVU277
	vxorpd	%xmm2, %xmm2, %xmm2
.LBE347:
.LBE350:
.LBE352:
.LBE354:
.LBE357:
	.loc 1 45 18 view .LVU278
	leaq	.LC9(%rip), %rsi
	movq	%r9, %rdi
.LBB358:
.LBB342:
.LBB341:
	.loc 6 666 34 view .LVU279
	subq	%rbx, %rax
.LVL86:
	.loc 6 666 34 view .LVU280
.LBE341:
.LBE342:
.LBE358:
.LBB359:
.LBB355:
.LBB353:
.LBB351:
.LBB349:
	.loc 6 227 8 view .LVU281
	vcvtsi2sdq	%rax, %xmm2, %xmm0
	.loc 6 227 38 view .LVU282
	vdivsd	.LC5(%rip), %xmm0, %xmm0
	vmovsd	%xmm0, 8(%rsp)
.LVL87:
.LBB348:
.LBI348:
	.loc 6 521 23 is_stmt 1 view .LVU283
	.loc 6 521 23 is_stmt 0 view .LVU284
.LBE348:
.LBE349:
.LBE351:
.LBE353:
.LBE355:
.LBB356:
.LBI356:
	.loc 6 537 2 is_stmt 1 view .LVU285
	.loc 6 537 2 is_stmt 0 view .LVU286
.LBE356:
.LBE359:
	.loc 1 45 5 is_stmt 1 view .LVU287
	.loc 1 45 18 is_stmt 0 view .LVU288
	call	_ZStlsISt11char_traitsIcEERSt13basic_ostreamIcT_ES5_PKc@PLT
.LVL88:
.LBB360:
.LBB361:
	.loc 3 221 25 view .LVU289
	vmovsd	8(%rsp), %xmm0
.LBE361:
.LBE360:
	.loc 1 45 18 view .LVU290
	movq	%rax, %rdi
.LVL89:
.LBB364:
.LBI360:
	.loc 3 220 7 is_stmt 1 view .LVU291
.LBB362:
	.loc 3 221 25 is_stmt 0 view .LVU292
	call	_ZNSo9_M_insertIdEERSoT_@PLT
.LVL90:
	.loc 3 221 25 view .LVU293
.LBE362:
.LBE364:
	.loc 1 45 59 view .LVU294
	leaq	.LC7(%rip), %r8
	movq	%r8, %rsi
.LBB365:
.LBB363:
	.loc 3 221 25 view .LVU295
	movq	%rax, %rdi
.LVL91:
	.loc 3 221 25 view .LVU296
.LBE363:
.LBE365:
	.loc 1 45 59 view .LVU297
	call	_ZStlsISt11char_traitsIcEERSt13basic_ostreamIcT_ES5_PKc@PLT
.LVL92:
	.loc 1 47 5 is_stmt 1 view .LVU298
	.loc 1 47 16 is_stmt 0 view .LVU299
	movq	%r15, %rsi
	movq	%r13, %rdi
	call	_Z11gemm_verifyPfS_
.LVL93:
	.loc 1 48 5 is_stmt 1 view .LVU300
	.loc 1 48 16 is_stmt 0 view .LVU301
	movq	%r14, %rsi
	movq	%r13, %rdi
	call	_Z11gemm_verifyPfS_
.LVL94:
	.loc 1 49 5 is_stmt 1 view .LVU302
	.loc 1 49 9 is_stmt 0 view .LVU303
	movq	%r12, %rdi
	call	free@PLT
.LVL95:
	.loc 1 50 5 is_stmt 1 view .LVU304
	.loc 1 50 9 is_stmt 0 view .LVU305
	movq	%rbp, %rdi
	call	free@PLT
.LVL96:
	.loc 1 51 5 is_stmt 1 view .LVU306
	.loc 1 51 9 is_stmt 0 view .LVU307
	movq	%r13, %rdi
	call	free@PLT
.LVL97:
	.loc 1 52 5 is_stmt 1 view .LVU308
	.loc 1 52 9 is_stmt 0 view .LVU309
	movq	%r15, %rdi
	call	free@PLT
.LVL98:
	.loc 1 53 5 is_stmt 1 view .LVU310
	.loc 1 53 9 is_stmt 0 view .LVU311
	movq	%r14, %rdi
	call	free@PLT
.LVL99:
	.loc 1 54 5 is_stmt 1 view .LVU312
	.loc 1 56 1 is_stmt 0 view .LVU313
	addq	$24, %rsp
	.cfi_def_cfa_offset 56
	xorl	%eax, %eax
	popq	%rbx
	.cfi_def_cfa_offset 48
.LVL100:
	.loc 1 56 1 view .LVU314
	popq	%rbp
	.cfi_def_cfa_offset 40
.LVL101:
	.loc 1 56 1 view .LVU315
	popq	%r12
	.cfi_def_cfa_offset 32
.LVL102:
	.loc 1 56 1 view .LVU316
	popq	%r13
	.cfi_def_cfa_offset 24
.LVL103:
	.loc 1 56 1 view .LVU317
	popq	%r14
	.cfi_def_cfa_offset 16
	popq	%r15
	.cfi_def_cfa_offset 8
.LVL104:
	.loc 1 56 1 view .LVU318
	ret
	.cfi_endproc
.LFE13838:
	.size	main, .-main
	.text
	.p2align 4
	.globl	_Z9mul_blockPKfS0_Pfi
	.type	_Z9mul_blockPKfS0_Pfi, @function
_Z9mul_blockPKfS0_Pfi:
.LVL105:
.LFB13851:
	.loc 1 104 65 is_stmt 1 view -0
	.cfi_startproc
	.loc 1 104 65 is_stmt 0 view .LVU320
	endbr64
	.loc 1 106 5 is_stmt 1 view .LVU321
	.loc 1 107 5 view .LVU322
.LVL106:
.LBB366:
	.loc 1 107 22 view .LVU323
.LBE366:
	.loc 1 104 65 is_stmt 0 view .LVU324
	pushq	%rbp
	.cfi_def_cfa_offset 16
	.cfi_offset 6, -16
	movq	%rsp, %rbp
	.cfi_def_cfa_register 6
	pushq	%r15
	pushq	%r14
	pushq	%r13
	pushq	%r12
	pushq	%rbx
	andq	$-32, %rsp
	.cfi_offset 15, -24
	.cfi_offset 14, -32
	.cfi_offset 13, -40
	.cfi_offset 12, -48
	.cfi_offset 3, -56
	.loc 1 104 65 view .LVU325
	movq	%rdi, -64(%rsp)
	movl	%ecx, -40(%rsp)
.LBB519:
	.loc 1 107 22 view .LVU326
	testl	%ecx, %ecx
	jle	.L51
	leaq	4(%rdi), %rax
	movq	%rsi, -56(%rsp)
	.loc 1 107 13 view .LVU327
	xorl	%r15d, %r15d
	movq	%rdx, %r13
	movq	%rax, -80(%rsp)
	leal	-1(%rcx), %eax
	movq	%rax, -72(%rsp)
.LVL107:
	.p2align 4,,10
	.p2align 3
.L45:
.LBB367:
	.loc 1 108 26 is_stmt 1 view .LVU328
	.loc 1 108 17 is_stmt 0 view .LVU329
	xorl	%r14d, %r14d
.LVL108:
	.p2align 4,,10
	.p2align 3
.L47:
.LBB368:
	.loc 1 109 13 is_stmt 1 view .LVU330
	.loc 1 109 47 is_stmt 0 view .LVU331
	movslq	N(%rip), %rcx
	movq	-72(%rsp), %rdx
	movl	%ecx, %r9d
	imull	%r14d, %r9d
	.loc 1 109 51 view .LVU332
	leal	(%r9,%r15), %eax
	movslq	%r9d, %r9
	cltq
	addq	%r9, %rdx
	.loc 1 109 36 view .LVU333
	leaq	0(%r13,%rax,4), %rax
	movq	%rax, -8(%rsp)
.LVL109:
.LBB369:
.LBI369:
	.loc 4 903 1 is_stmt 1 view .LVU334
.LBB370:
	.loc 4 905 3 view .LVU335
	.loc 4 905 23 is_stmt 0 view .LVU336
	vmovups	(%rax), %ymm8
.LVL110:
	.loc 4 905 23 view .LVU337
.LBE370:
.LBE369:
	.loc 1 110 13 is_stmt 1 view .LVU338
	leal	1(%r14), %eax
	.loc 1 110 47 is_stmt 0 view .LVU339
	movl	%eax, %r8d
	movl	%eax, -36(%rsp)
	imull	%ecx, %r8d
.LVL111:
.LBB371:
.LBI371:
	.loc 4 903 1 is_stmt 1 view .LVU340
.LBB372:
	.loc 4 905 3 view .LVU341
.LBE372:
.LBE371:
	.loc 1 110 51 is_stmt 0 view .LVU342
	leal	(%r8,%r15), %eax
	movslq	%r8d, %r8
	.loc 1 110 51 view .LVU343
	cltq
.LBB374:
.LBB375:
	.loc 1 120 45 view .LVU344
	subq	%r9, %r8
.LVL112:
	.loc 1 120 45 view .LVU345
.LBE375:
.LBE374:
.LBB451:
.LBB373:
	.loc 4 905 23 view .LVU346
	vmovups	0(%r13,%rax,4), %ymm7
.LVL113:
	.loc 4 905 23 view .LVU347
.LBE373:
.LBE451:
	.loc 1 111 13 is_stmt 1 view .LVU348
	leal	2(%r14), %eax
	.loc 1 111 47 is_stmt 0 view .LVU349
	movl	%eax, %r12d
	movl	%eax, -32(%rsp)
	imull	%ecx, %r12d
.LVL114:
.LBB452:
.LBI452:
	.loc 4 903 1 is_stmt 1 view .LVU350
.LBB453:
	.loc 4 905 3 view .LVU351
.LBE453:
.LBE452:
	.loc 1 111 51 is_stmt 0 view .LVU352
	leal	(%r12,%r15), %eax
	movslq	%r12d, %r12
	.loc 1 111 51 view .LVU353
	cltq
.LBB455:
.LBB442:
	.loc 1 121 45 view .LVU354
	subq	%r9, %r12
.LVL115:
	.loc 1 121 45 view .LVU355
.LBE442:
.LBE455:
.LBB456:
.LBB454:
	.loc 4 905 23 view .LVU356
	vmovups	0(%r13,%rax,4), %ymm6
.LVL116:
	.loc 4 905 23 view .LVU357
.LBE454:
.LBE456:
	.loc 1 112 13 is_stmt 1 view .LVU358
	leal	3(%r14), %eax
	.loc 1 112 47 is_stmt 0 view .LVU359
	movl	%eax, %ebx
	movl	%eax, -28(%rsp)
	imull	%ecx, %ebx
.LVL117:
.LBB457:
.LBI457:
	.loc 4 903 1 is_stmt 1 view .LVU360
.LBB458:
	.loc 4 905 3 view .LVU361
.LBE458:
.LBE457:
	.loc 1 112 51 is_stmt 0 view .LVU362
	leal	(%rbx,%r15), %eax
	movslq	%ebx, %rbx
	.loc 1 112 51 view .LVU363
	cltq
.LBB460:
.LBB443:
	.loc 1 122 45 view .LVU364
	subq	%r9, %rbx
.LVL118:
	.loc 1 122 45 view .LVU365
.LBE443:
.LBE460:
.LBB461:
.LBB459:
	.loc 4 905 23 view .LVU366
	vmovups	0(%r13,%rax,4), %ymm5
.LVL119:
	.loc 4 905 23 view .LVU367
.LBE459:
.LBE461:
	.loc 1 113 13 is_stmt 1 view .LVU368
	leal	4(%r14), %eax
	.loc 1 113 47 is_stmt 0 view .LVU369
	movl	%eax, %r11d
	movl	%eax, -24(%rsp)
	imull	%ecx, %r11d
.LVL120:
.LBB462:
.LBI462:
	.loc 4 903 1 is_stmt 1 view .LVU370
.LBB463:
	.loc 4 905 3 view .LVU371
.LBE463:
.LBE462:
	.loc 1 113 51 is_stmt 0 view .LVU372
	leal	(%r11,%r15), %eax
	movslq	%r11d, %r11
	.loc 1 113 51 view .LVU373
	cltq
.LBB465:
.LBB444:
	.loc 1 123 45 view .LVU374
	subq	%r9, %r11
.LVL121:
	.loc 1 123 45 view .LVU375
.LBE444:
.LBE465:
.LBB466:
.LBB464:
	.loc 4 905 23 view .LVU376
	vmovups	0(%r13,%rax,4), %ymm4
.LVL122:
	.loc 4 905 23 view .LVU377
.LBE464:
.LBE466:
	.loc 1 114 13 is_stmt 1 view .LVU378
	leal	5(%r14), %eax
	.loc 1 114 47 is_stmt 0 view .LVU379
	movl	%eax, %r10d
	movl	%eax, -20(%rsp)
	imull	%ecx, %r10d
.LVL123:
.LBB467:
.LBI467:
	.loc 4 903 1 is_stmt 1 view .LVU380
.LBB468:
	.loc 4 905 3 view .LVU381
.LBE468:
.LBE467:
	.loc 1 114 51 is_stmt 0 view .LVU382
	leal	(%r10,%r15), %eax
	movslq	%r10d, %r10
	.loc 1 114 51 view .LVU383
	cltq
.LBB470:
.LBB445:
	.loc 1 124 45 view .LVU384
	subq	%r9, %r10
.LVL124:
	.loc 1 124 45 view .LVU385
.LBE445:
.LBE470:
.LBB471:
.LBB469:
	.loc 4 905 23 view .LVU386
	vmovups	0(%r13,%rax,4), %ymm3
.LVL125:
	.loc 4 905 23 view .LVU387
.LBE469:
.LBE471:
	.loc 1 115 13 is_stmt 1 view .LVU388
	leal	6(%r14), %eax
	.loc 1 115 47 is_stmt 0 view .LVU389
	movl	%eax, %edi
	movl	%eax, -16(%rsp)
	imull	%ecx, %edi
.LVL126:
.LBB472:
.LBI472:
	.loc 4 903 1 is_stmt 1 view .LVU390
.LBB473:
	.loc 4 905 3 view .LVU391
.LBE473:
.LBE472:
	.loc 1 115 51 is_stmt 0 view .LVU392
	leal	(%rdi,%r15), %eax
	movslq	%edi, %rdi
	.loc 1 115 51 view .LVU393
	cltq
.LBB475:
.LBB446:
	.loc 1 125 45 view .LVU394
	subq	%r9, %rdi
.LVL127:
	.loc 1 125 45 view .LVU395
.LBE446:
.LBE475:
.LBB476:
.LBB474:
	.loc 4 905 23 view .LVU396
	vmovups	0(%r13,%rax,4), %ymm2
.LVL128:
	.loc 4 905 23 view .LVU397
.LBE474:
.LBE476:
	.loc 1 116 13 is_stmt 1 view .LVU398
	leal	7(%r14), %eax
	.loc 1 116 47 is_stmt 0 view .LVU399
	movl	%eax, %esi
	movl	%eax, -12(%rsp)
	imull	%ecx, %esi
.LVL129:
.LBB477:
.LBI477:
	.loc 4 903 1 is_stmt 1 view .LVU400
.LBB478:
	.loc 4 905 3 view .LVU401
	salq	$2, %rcx
.LBE478:
.LBE477:
	.loc 1 116 51 is_stmt 0 view .LVU402
	leal	(%rsi,%r15), %eax
	movslq	%esi, %rsi
	.loc 1 116 51 view .LVU403
	cltq
.LBB481:
.LBB447:
	.loc 1 126 45 view .LVU404
	subq	%r9, %rsi
.LVL130:
	.loc 1 126 45 view .LVU405
.LBE447:
.LBE481:
.LBB482:
.LBB479:
	.loc 4 905 23 view .LVU406
	vmovups	0(%r13,%rax,4), %ymm1
.LVL131:
	.loc 4 905 23 view .LVU407
.LBE479:
.LBE482:
	.loc 1 118 13 is_stmt 1 view .LVU408
.LBB483:
	.loc 1 118 30 view .LVU409
	movq	-64(%rsp), %rax
	leaq	(%rax,%r9,4), %rax
	movq	%rax, -48(%rsp)
	movq	-80(%rsp), %rax
	leaq	(%rax,%rdx,4), %rax
.LBE483:
.LBB484:
.LBB480:
	.loc 4 905 23 is_stmt 0 view .LVU410
	movq	-56(%rsp), %rdx
.LBE480:
.LBE484:
.LBB485:
.LBB448:
	.loc 1 126 45 view .LVU411
	movq	%rax, %r9
	movq	-48(%rsp), %rax
.LVL132:
	.p2align 4,,10
	.p2align 3
.L46:
	.loc 1 119 17 is_stmt 1 discriminator 3 view .LVU412
.LBB376:
.LBI376:
	.loc 4 1318 1 discriminator 3 view .LVU413
.LBB377:
	.loc 4 1320 3 discriminator 3 view .LVU414
	.loc 4 1320 3 is_stmt 0 discriminator 3 view .LVU415
.LBE377:
.LBE376:
	.loc 1 120 17 is_stmt 1 discriminator 3 view .LVU416
.LBB379:
.LBI379:
	.loc 4 1318 1 discriminator 3 view .LVU417
.LBB380:
	.loc 4 1320 3 discriminator 3 view .LVU418
	.loc 4 1320 3 is_stmt 0 discriminator 3 view .LVU419
.LBE380:
.LBE379:
	.loc 1 121 17 is_stmt 1 discriminator 3 view .LVU420
.LBB382:
.LBI382:
	.loc 4 1318 1 discriminator 3 view .LVU421
.LBB383:
	.loc 4 1320 3 discriminator 3 view .LVU422
	.loc 4 1320 3 is_stmt 0 discriminator 3 view .LVU423
.LBE383:
.LBE382:
	.loc 1 122 17 is_stmt 1 discriminator 3 view .LVU424
.LBB385:
.LBI385:
	.loc 4 1318 1 discriminator 3 view .LVU425
.LBB386:
	.loc 4 1320 3 discriminator 3 view .LVU426
	.loc 4 1320 3 is_stmt 0 discriminator 3 view .LVU427
.LBE386:
.LBE385:
	.loc 1 123 17 is_stmt 1 discriminator 3 view .LVU428
.LBB388:
.LBI388:
	.loc 4 1318 1 discriminator 3 view .LVU429
.LBB389:
	.loc 4 1320 3 discriminator 3 view .LVU430
	.loc 4 1320 3 is_stmt 0 discriminator 3 view .LVU431
.LBE389:
.LBE388:
	.loc 1 124 17 is_stmt 1 discriminator 3 view .LVU432
.LBB391:
.LBI391:
	.loc 4 1318 1 discriminator 3 view .LVU433
.LBB392:
	.loc 4 1320 3 discriminator 3 view .LVU434
	.loc 4 1320 3 is_stmt 0 discriminator 3 view .LVU435
.LBE392:
.LBE391:
	.loc 1 125 17 is_stmt 1 discriminator 3 view .LVU436
.LBB394:
.LBI394:
	.loc 4 1318 1 discriminator 3 view .LVU437
.LBB395:
	.loc 4 1320 3 discriminator 3 view .LVU438
	.loc 4 1320 3 is_stmt 0 discriminator 3 view .LVU439
.LBE395:
.LBE394:
	.loc 1 126 17 is_stmt 1 discriminator 3 view .LVU440
.LBB397:
.LBI397:
	.loc 4 1318 1 discriminator 3 view .LVU441
.LBB398:
	.loc 4 1320 3 discriminator 3 view .LVU442
	.loc 4 1320 3 is_stmt 0 discriminator 3 view .LVU443
.LBE398:
.LBE397:
	.loc 1 128 17 is_stmt 1 discriminator 3 view .LVU444
.LBB400:
.LBI400:
	.loc 4 903 1 discriminator 3 view .LVU445
.LBB401:
	.loc 4 905 3 discriminator 3 view .LVU446
	.loc 4 905 23 is_stmt 0 discriminator 3 view .LVU447
	vmovups	(%rdx), %ymm0
.LVL133:
	.loc 4 905 23 discriminator 3 view .LVU448
.LBE401:
.LBE400:
	.loc 1 130 17 is_stmt 1 discriminator 3 view .LVU449
.LBB402:
.LBI402:
	.loc 5 63 1 discriminator 3 view .LVU450
.LBB403:
	.loc 5 65 3 discriminator 3 view .LVU451
.LBE403:
.LBE402:
.LBB405:
.LBB378:
	.loc 4 1321 25 is_stmt 0 discriminator 3 view .LVU452
	vbroadcastss	(%rax), %ymm9
.LBE378:
.LBE405:
.LBE448:
	.loc 1 118 30 discriminator 3 view .LVU453
	addq	%rcx, %rdx
.LBB449:
.LBB406:
.LBB404:
	.loc 5 65 10 discriminator 3 view .LVU454
	vfmadd231ps	%ymm0, %ymm9, %ymm8
.LVL134:
	.loc 5 65 10 discriminator 3 view .LVU455
.LBE404:
.LBE406:
	.loc 1 131 17 is_stmt 1 discriminator 3 view .LVU456
.LBB407:
.LBI407:
	.loc 5 63 1 discriminator 3 view .LVU457
.LBB408:
	.loc 5 65 3 discriminator 3 view .LVU458
.LBE408:
.LBE407:
.LBB410:
.LBB381:
	.loc 4 1321 25 is_stmt 0 discriminator 3 view .LVU459
	vbroadcastss	(%rax,%r8,4), %ymm9
.LBE381:
.LBE410:
.LBB411:
.LBB409:
	.loc 5 65 10 discriminator 3 view .LVU460
	vfmadd231ps	%ymm0, %ymm9, %ymm7
.LVL135:
	.loc 5 65 10 discriminator 3 view .LVU461
.LBE409:
.LBE411:
	.loc 1 132 17 is_stmt 1 discriminator 3 view .LVU462
.LBB412:
.LBI412:
	.loc 5 63 1 discriminator 3 view .LVU463
.LBB413:
	.loc 5 65 3 discriminator 3 view .LVU464
.LBE413:
.LBE412:
.LBB415:
.LBB384:
	.loc 4 1321 25 is_stmt 0 discriminator 3 view .LVU465
	vbroadcastss	(%rax,%r12,4), %ymm9
.LBE384:
.LBE415:
.LBB416:
.LBB414:
	.loc 5 65 10 discriminator 3 view .LVU466
	vfmadd231ps	%ymm0, %ymm9, %ymm6
.LVL136:
	.loc 5 65 10 discriminator 3 view .LVU467
.LBE414:
.LBE416:
	.loc 1 133 17 is_stmt 1 discriminator 3 view .LVU468
.LBB417:
.LBI417:
	.loc 5 63 1 discriminator 3 view .LVU469
.LBB418:
	.loc 5 65 3 discriminator 3 view .LVU470
.LBE418:
.LBE417:
.LBB420:
.LBB387:
	.loc 4 1321 25 is_stmt 0 discriminator 3 view .LVU471
	vbroadcastss	(%rax,%rbx,4), %ymm9
.LBE387:
.LBE420:
.LBB421:
.LBB419:
	.loc 5 65 10 discriminator 3 view .LVU472
	vfmadd231ps	%ymm0, %ymm9, %ymm5
.LVL137:
	.loc 5 65 10 discriminator 3 view .LVU473
.LBE419:
.LBE421:
	.loc 1 134 17 is_stmt 1 discriminator 3 view .LVU474
.LBB422:
.LBI422:
	.loc 5 63 1 discriminator 3 view .LVU475
.LBB423:
	.loc 5 65 3 discriminator 3 view .LVU476
.LBE423:
.LBE422:
.LBB425:
.LBB390:
	.loc 4 1321 25 is_stmt 0 discriminator 3 view .LVU477
	vbroadcastss	(%rax,%r11,4), %ymm9
.LBE390:
.LBE425:
.LBB426:
.LBB424:
	.loc 5 65 10 discriminator 3 view .LVU478
	vfmadd231ps	%ymm0, %ymm9, %ymm4
.LVL138:
	.loc 5 65 10 discriminator 3 view .LVU479
.LBE424:
.LBE426:
	.loc 1 135 17 is_stmt 1 discriminator 3 view .LVU480
.LBB427:
.LBI427:
	.loc 5 63 1 discriminator 3 view .LVU481
.LBB428:
	.loc 5 65 3 discriminator 3 view .LVU482
.LBE428:
.LBE427:
.LBB430:
.LBB393:
	.loc 4 1321 25 is_stmt 0 discriminator 3 view .LVU483
	vbroadcastss	(%rax,%r10,4), %ymm9
.LBE393:
.LBE430:
.LBB431:
.LBB429:
	.loc 5 65 10 discriminator 3 view .LVU484
	vfmadd231ps	%ymm0, %ymm9, %ymm3
.LVL139:
	.loc 5 65 10 discriminator 3 view .LVU485
.LBE429:
.LBE431:
	.loc 1 136 17 is_stmt 1 discriminator 3 view .LVU486
.LBB432:
.LBI432:
	.loc 5 63 1 discriminator 3 view .LVU487
.LBB433:
	.loc 5 65 3 discriminator 3 view .LVU488
.LBE433:
.LBE432:
.LBB435:
.LBB396:
	.loc 4 1321 25 is_stmt 0 discriminator 3 view .LVU489
	vbroadcastss	(%rax,%rdi,4), %ymm9
.LBE396:
.LBE435:
.LBB436:
.LBB434:
	.loc 5 65 10 discriminator 3 view .LVU490
	vfmadd231ps	%ymm0, %ymm9, %ymm2
.LVL140:
	.loc 5 65 10 discriminator 3 view .LVU491
.LBE434:
.LBE436:
	.loc 1 137 17 is_stmt 1 discriminator 3 view .LVU492
.LBB437:
.LBI437:
	.loc 5 63 1 discriminator 3 view .LVU493
.LBB438:
	.loc 5 65 3 discriminator 3 view .LVU494
.LBE438:
.LBE437:
.LBB440:
.LBB399:
	.loc 4 1321 25 is_stmt 0 discriminator 3 view .LVU495
	vbroadcastss	(%rax,%rsi,4), %ymm9
.LBE399:
.LBE440:
.LBE449:
	.loc 1 118 30 discriminator 3 view .LVU496
	addq	$4, %rax
.LVL141:
.LBB450:
.LBB441:
.LBB439:
	.loc 5 65 10 discriminator 3 view .LVU497
	vfmadd231ps	%ymm0, %ymm9, %ymm1
.LVL142:
	.loc 5 65 10 discriminator 3 view .LVU498
.LBE439:
.LBE441:
.LBE450:
	.loc 1 118 13 is_stmt 1 discriminator 3 view .LVU499
	.loc 1 118 30 discriminator 3 view .LVU500
	cmpq	%rax, %r9
	jne	.L46
.LBE485:
	.loc 1 139 13 discriminator 2 view .LVU501
.LVL143:
.LBB486:
.LBI486:
	.loc 4 909 1 discriminator 2 view .LVU502
.LBB487:
	.loc 4 911 3 discriminator 2 view .LVU503
	.loc 4 911 20 is_stmt 0 discriminator 2 view .LVU504
	movq	-8(%rsp), %rax
.LVL144:
	.loc 4 911 20 discriminator 2 view .LVU505
.LBE487:
.LBE486:
.LBE368:
	.loc 1 108 36 discriminator 2 view .LVU506
	addl	$8, %r14d
.LVL145:
.LBB518:
.LBB489:
.LBB488:
	.loc 4 911 20 discriminator 2 view .LVU507
	vmovups	%ymm8, (%rax)
.LVL146:
	.loc 4 911 20 discriminator 2 view .LVU508
.LBE488:
.LBE489:
	.loc 1 140 13 is_stmt 1 discriminator 2 view .LVU509
.LBB490:
.LBI490:
	.loc 4 909 1 discriminator 2 view .LVU510
.LBB491:
	.loc 4 911 3 discriminator 2 view .LVU511
.LBE491:
.LBE490:
	.loc 1 140 41 is_stmt 0 discriminator 2 view .LVU512
	movl	-36(%rsp), %eax
	imull	N(%rip), %eax
.LVL147:
	.loc 1 140 45 discriminator 2 view .LVU513
	addl	%r15d, %eax
.LVL148:
	.loc 1 140 45 discriminator 2 view .LVU514
	cltq
.LBB493:
.LBB492:
	.loc 4 911 20 discriminator 2 view .LVU515
	vmovups	%ymm7, 0(%r13,%rax,4)
.LVL149:
	.loc 4 911 20 discriminator 2 view .LVU516
.LBE492:
.LBE493:
	.loc 1 141 13 is_stmt 1 discriminator 2 view .LVU517
.LBB494:
.LBI494:
	.loc 4 909 1 discriminator 2 view .LVU518
.LBB495:
	.loc 4 911 3 discriminator 2 view .LVU519
.LBE495:
.LBE494:
	.loc 1 141 41 is_stmt 0 discriminator 2 view .LVU520
	movl	-32(%rsp), %eax
	imull	N(%rip), %eax
.LVL150:
	.loc 1 141 45 discriminator 2 view .LVU521
	addl	%r15d, %eax
.LVL151:
	.loc 1 141 45 discriminator 2 view .LVU522
	cltq
.LBB497:
.LBB496:
	.loc 4 911 20 discriminator 2 view .LVU523
	vmovups	%ymm6, 0(%r13,%rax,4)
.LVL152:
	.loc 4 911 20 discriminator 2 view .LVU524
.LBE496:
.LBE497:
	.loc 1 142 13 is_stmt 1 discriminator 2 view .LVU525
.LBB498:
.LBI498:
	.loc 4 909 1 discriminator 2 view .LVU526
.LBB499:
	.loc 4 911 3 discriminator 2 view .LVU527
.LBE499:
.LBE498:
	.loc 1 142 41 is_stmt 0 discriminator 2 view .LVU528
	movl	-28(%rsp), %eax
	imull	N(%rip), %eax
.LVL153:
	.loc 1 142 45 discriminator 2 view .LVU529
	addl	%r15d, %eax
.LVL154:
	.loc 1 142 45 discriminator 2 view .LVU530
	cltq
.LBB501:
.LBB500:
	.loc 4 911 20 discriminator 2 view .LVU531
	vmovups	%ymm5, 0(%r13,%rax,4)
.LVL155:
	.loc 4 911 20 discriminator 2 view .LVU532
.LBE500:
.LBE501:
	.loc 1 143 13 is_stmt 1 discriminator 2 view .LVU533
.LBB502:
.LBI502:
	.loc 4 909 1 discriminator 2 view .LVU534
.LBB503:
	.loc 4 911 3 discriminator 2 view .LVU535
.LBE503:
.LBE502:
	.loc 1 143 41 is_stmt 0 discriminator 2 view .LVU536
	movl	-24(%rsp), %eax
	imull	N(%rip), %eax
.LVL156:
	.loc 1 143 45 discriminator 2 view .LVU537
	addl	%r15d, %eax
.LVL157:
	.loc 1 143 45 discriminator 2 view .LVU538
	cltq
.LBB505:
.LBB504:
	.loc 4 911 20 discriminator 2 view .LVU539
	vmovups	%ymm4, 0(%r13,%rax,4)
.LVL158:
	.loc 4 911 20 discriminator 2 view .LVU540
.LBE504:
.LBE505:
	.loc 1 144 13 is_stmt 1 discriminator 2 view .LVU541
.LBB506:
.LBI506:
	.loc 4 909 1 discriminator 2 view .LVU542
.LBB507:
	.loc 4 911 3 discriminator 2 view .LVU543
.LBE507:
.LBE506:
	.loc 1 144 41 is_stmt 0 discriminator 2 view .LVU544
	movl	-20(%rsp), %eax
	imull	N(%rip), %eax
.LVL159:
	.loc 1 144 45 discriminator 2 view .LVU545
	addl	%r15d, %eax
.LVL160:
	.loc 1 144 45 discriminator 2 view .LVU546
	cltq
.LBB509:
.LBB508:
	.loc 4 911 20 discriminator 2 view .LVU547
	vmovups	%ymm3, 0(%r13,%rax,4)
.LVL161:
	.loc 4 911 20 discriminator 2 view .LVU548
.LBE508:
.LBE509:
	.loc 1 145 13 is_stmt 1 discriminator 2 view .LVU549
.LBB510:
.LBI510:
	.loc 4 909 1 discriminator 2 view .LVU550
.LBB511:
	.loc 4 911 3 discriminator 2 view .LVU551
.LBE511:
.LBE510:
	.loc 1 145 41 is_stmt 0 discriminator 2 view .LVU552
	movl	-16(%rsp), %eax
	imull	N(%rip), %eax
.LVL162:
	.loc 1 145 45 discriminator 2 view .LVU553
	addl	%r15d, %eax
.LVL163:
	.loc 1 145 45 discriminator 2 view .LVU554
	cltq
.LBB513:
.LBB512:
	.loc 4 911 20 discriminator 2 view .LVU555
	vmovups	%ymm2, 0(%r13,%rax,4)
.LVL164:
	.loc 4 911 20 discriminator 2 view .LVU556
.LBE512:
.LBE513:
	.loc 1 146 13 is_stmt 1 discriminator 2 view .LVU557
.LBB514:
.LBI514:
	.loc 4 909 1 discriminator 2 view .LVU558
.LBB515:
	.loc 4 911 3 discriminator 2 view .LVU559
.LBE515:
.LBE514:
	.loc 1 146 41 is_stmt 0 discriminator 2 view .LVU560
	movl	-12(%rsp), %eax
	imull	N(%rip), %eax
.LVL165:
	.loc 1 146 45 discriminator 2 view .LVU561
	addl	%r15d, %eax
.LVL166:
	.loc 1 146 45 discriminator 2 view .LVU562
	cltq
.LBB517:
.LBB516:
	.loc 4 911 20 discriminator 2 view .LVU563
	vmovups	%ymm1, 0(%r13,%rax,4)
.LVL167:
	.loc 4 911 20 discriminator 2 view .LVU564
.LBE516:
.LBE517:
.LBE518:
	.loc 1 108 9 is_stmt 1 discriminator 2 view .LVU565
	.loc 1 108 26 discriminator 2 view .LVU566
	cmpl	%r14d, -40(%rsp)
	jg	.L47
.LBE367:
	.loc 1 107 5 discriminator 2 view .LVU567
	.loc 1 107 22 is_stmt 0 discriminator 2 view .LVU568
	addq	$32, -56(%rsp)
	.loc 1 107 32 discriminator 2 view .LVU569
	addl	$8, %r15d
.LVL168:
	.loc 1 107 22 is_stmt 1 discriminator 2 view .LVU570
	cmpl	%r15d, -40(%rsp)
	jg	.L45
	vzeroupper
.LVL169:
.L51:
	.loc 1 107 22 is_stmt 0 discriminator 2 view .LVU571
.LBE519:
	.loc 1 150 1 view .LVU572
	leaq	-40(%rbp), %rsp
.LVL170:
	.loc 1 150 1 view .LVU573
	popq	%rbx
	popq	%r12
	popq	%r13
	popq	%r14
	popq	%r15
	popq	%rbp
	.cfi_def_cfa 7, 8
.LVL171:
	.loc 1 150 1 view .LVU574
	ret
	.cfi_endproc
.LFE13851:
	.size	_Z9mul_blockPKfS0_Pfi, .-_Z9mul_blockPKfS0_Pfi
	.p2align 4
	.globl	_Z14gemm_avx_blockPfPKfS_
	.type	_Z14gemm_avx_blockPfPKfS_, @function
_Z14gemm_avx_blockPfPKfS_:
.LVL172:
.LFB13852:
	.loc 1 152 56 is_stmt 1 view -0
	.cfi_startproc
	.loc 1 152 56 is_stmt 0 view .LVU576
	endbr64
	.loc 1 153 5 is_stmt 1 view .LVU577
	.loc 1 152 56 is_stmt 0 view .LVU578
	pushq	%r15
	.cfi_def_cfa_offset 16
	.cfi_offset 15, -16
	pushq	%r14
	.cfi_def_cfa_offset 24
	.cfi_offset 14, -24
	pushq	%r13
	.cfi_def_cfa_offset 32
	.cfi_offset 13, -32
	pushq	%r12
	.cfi_def_cfa_offset 40
	.cfi_offset 12, -40
	pushq	%rbp
	.cfi_def_cfa_offset 48
	.cfi_offset 6, -48
	pushq	%rbx
	.cfi_def_cfa_offset 56
	.cfi_offset 3, -56
	subq	$40, %rsp
	.cfi_def_cfa_offset 96
	.loc 1 153 9 view .LVU579
	movslq	BLOCK_SIZE(%rip), %r12
.LVL173:
	.loc 1 154 5 is_stmt 1 view .LVU580
	.loc 1 155 5 view .LVU581
.LBB520:
	.loc 1 155 22 view .LVU582
	movl	N(%rip), %eax
.LBE520:
	.loc 1 152 56 is_stmt 0 view .LVU583
	movq	%rdi, 8(%rsp)
	movq	%rsi, 16(%rsp)
	movq	%r12, %r13
	movq	%rdx, 24(%rsp)
.LBB524:
	.loc 1 155 13 view .LVU584
	movl	$0, 4(%rsp)
	.loc 1 155 22 view .LVU585
	testl	%eax, %eax
	jle	.L66
.LVL174:
	.p2align 4,,10
	.p2align 3
.L65:
.LBB521:
	.loc 1 156 26 view .LVU586
	xorl	%ebp, %ebp
	.loc 1 156 17 view .LVU587
	xorl	%ebx, %ebx
.LVL175:
	.p2align 4,,10
	.p2align 3
.L59:
.LBB522:
	.loc 1 157 30 is_stmt 1 view .LVU588
	xorl	%r15d, %r15d
	.loc 1 157 21 is_stmt 0 view .LVU589
	xorl	%r14d, %r14d
	.loc 1 157 30 view .LVU590
	testl	%eax, %eax
	jle	.L58
.LVL176:
	.p2align 4,,10
	.p2align 3
.L56:
	.loc 1 158 17 is_stmt 1 discriminator 3 view .LVU591
	.loc 1 158 63 is_stmt 0 discriminator 3 view .LVU592
	movl	4(%rsp), %esi
	.loc 1 158 26 discriminator 3 view .LVU593
	movq	24(%rsp), %rcx
	.loc 1 157 37 discriminator 3 view .LVU594
	addl	%r13d, %r14d
.LVL177:
	.loc 1 158 63 discriminator 3 view .LVU595
	imull	%eax, %esi
	.loc 1 158 48 discriminator 3 view .LVU596
	imull	%ebx, %eax
	.loc 1 158 67 discriminator 3 view .LVU597
	movslq	%esi, %rsi
	leaq	(%rsi,%r15), %rdx
	.loc 1 158 52 discriminator 3 view .LVU598
	cltq
	.loc 1 158 37 discriminator 3 view .LVU599
	addq	%rbp, %rsi
	.loc 1 158 26 discriminator 3 view .LVU600
	leaq	(%rcx,%rdx,4), %rdx
	movq	16(%rsp), %rcx
	.loc 1 158 52 discriminator 3 view .LVU601
	addq	%r15, %rax
	.loc 1 157 30 discriminator 3 view .LVU602
	addq	%r12, %r15
	.loc 1 158 26 discriminator 3 view .LVU603
	leaq	(%rcx,%rax,4), %r10
	.loc 1 158 37 discriminator 3 view .LVU604
	movq	8(%rsp), %rax
	.loc 1 158 26 discriminator 3 view .LVU605
	movl	%r13d, %ecx
	.loc 1 158 37 discriminator 3 view .LVU606
	leaq	(%rax,%rsi,4), %rdi
	.loc 1 158 26 discriminator 3 view .LVU607
	movq	%r10, %rsi
	call	_Z9mul_blockPKfS0_Pfi
.LVL178:
	.loc 1 157 13 is_stmt 1 discriminator 3 view .LVU608
	.loc 1 157 30 discriminator 3 view .LVU609
	movl	N(%rip), %eax
	cmpl	%r14d, %eax
	jg	.L56
.LVL179:
.L58:
	.loc 1 157 30 is_stmt 0 discriminator 3 view .LVU610
.LBE522:
	.loc 1 156 9 is_stmt 1 discriminator 2 view .LVU611
	.loc 1 156 33 is_stmt 0 discriminator 2 view .LVU612
	addl	%r13d, %ebx
.LVL180:
	.loc 1 156 26 is_stmt 1 discriminator 2 view .LVU613
	addq	%r12, %rbp
	cmpl	%eax, %ebx
	jl	.L59
.LBE521:
	.loc 1 155 5 discriminator 2 view .LVU614
	.loc 1 155 29 is_stmt 0 discriminator 2 view .LVU615
	addl	%r13d, 4(%rsp)
.LVL181:
	.loc 1 155 29 discriminator 2 view .LVU616
	movl	4(%rsp), %ebx
.LVL182:
	.loc 1 155 22 is_stmt 1 discriminator 2 view .LVU617
	cmpl	%eax, %ebx
	jge	.L66
.L70:
.LVL183:
.LBB523:
	.loc 1 156 26 view .LVU618
	testl	%eax, %eax
	jg	.L65
.LBE523:
	.loc 1 155 5 view .LVU619
	.loc 1 155 29 is_stmt 0 view .LVU620
	addl	%r13d, 4(%rsp)
.LVL184:
	.loc 1 155 29 view .LVU621
	movl	4(%rsp), %ebx
.LVL185:
	.loc 1 155 22 is_stmt 1 view .LVU622
	cmpl	%eax, %ebx
	jl	.L70
.LVL186:
.L66:
	.loc 1 155 22 is_stmt 0 view .LVU623
.LBE524:
	.loc 1 162 1 view .LVU624
	addq	$40, %rsp
	.cfi_def_cfa_offset 56
	popq	%rbx
	.cfi_def_cfa_offset 48
	popq	%rbp
	.cfi_def_cfa_offset 40
	popq	%r12
	.cfi_def_cfa_offset 32
.LVL187:
	.loc 1 162 1 view .LVU625
	popq	%r13
	.cfi_def_cfa_offset 24
.LVL188:
	.loc 1 162 1 view .LVU626
	popq	%r14
	.cfi_def_cfa_offset 16
	popq	%r15
	.cfi_def_cfa_offset 8
	ret
	.cfi_endproc
.LFE13852:
	.size	_Z14gemm_avx_blockPfPKfS_, .-_Z14gemm_avx_blockPfPKfS_
	.section	.text.startup
	.p2align 4
	.type	_GLOBAL__sub_I_N, @function
_GLOBAL__sub_I_N:
.LFB14978:
	.loc 1 162 1 is_stmt 1 view -0
	.cfi_startproc
	endbr64
.LBB527:
.LBI527:
	.loc 1 162 1 view .LVU628
.LVL189:
	.loc 1 162 1 is_stmt 0 view .LVU629
.LBE527:
	pushq	%rbp
	.cfi_def_cfa_offset 16
	.cfi_offset 6, -16
.LBB530:
.LBB528:
	.file 7 "/usr/include/c++/11/iostream"
	.loc 7 74 25 view .LVU630
	leaq	_ZStL8__ioinit(%rip), %rbp
	movq	%rbp, %rdi
	call	_ZNSt8ios_base4InitC1Ev@PLT
.LVL190:
	movq	_ZNSt8ios_base4InitD1Ev@GOTPCREL(%rip), %rdi
	movq	%rbp, %rsi
.LBE528:
.LBE530:
	.loc 1 162 1 view .LVU631
	popq	%rbp
	.cfi_def_cfa_offset 8
.LBB531:
.LBB529:
	.loc 7 74 25 view .LVU632
	leaq	__dso_handle(%rip), %rdx
	jmp	__cxa_atexit@PLT
.LVL191:
.LBE529:
.LBE531:
	.cfi_endproc
.LFE14978:
	.size	_GLOBAL__sub_I_N, .-_GLOBAL__sub_I_N
	.section	.init_array,"aw"
	.align 8
	.quad	_GLOBAL__sub_I_N
	.globl	BLOCK_SIZE
	.data
	.align 4
	.type	BLOCK_SIZE, @object
	.size	BLOCK_SIZE, 4
BLOCK_SIZE:
	.long	8
	.globl	N
	.align 4
	.type	N, @object
	.size	N, 4
N:
	.long	16
	.local	_ZStL8__ioinit
	.comm	_ZStL8__ioinit,1,1
	.section	.rodata.cst16,"aM",@progbits,16
	.align 16
.LC1:
	.long	2147483647
	.long	0
	.long	0
	.long	0
	.section	.rodata.cst8,"aM",@progbits,8
	.align 8
.LC2:
	.long	-755914244
	.long	1062232653
	.align 8
.LC5:
	.long	0
	.long	1104006501
	.text
.Letext0:
	.file 8 "/usr/include/x86_64-linux-gnu/bits/types.h"
	.file 9 "/usr/include/locale.h"
	.file 10 "/usr/include/c++/11/clocale"
	.file 11 "/usr/include/c++/11/cmath"
	.file 12 "/usr/include/c++/11/csetjmp"
	.file 13 "/usr/include/c++/11/csignal"
	.file 14 "/usr/include/c++/11/cstdarg"
	.file 15 "/usr/include/c++/11/cstddef"
	.file 16 "/usr/include/c++/11/cstdio"
	.file 17 "/usr/include/c++/11/cstdlib"
	.file 18 "/usr/include/c++/11/cstring"
	.file 19 "/usr/include/c++/11/ctime"
	.file 20 "/usr/include/c++/11/cwchar"
	.file 21 "/usr/include/c++/11/cwctype"
	.file 22 "/usr/include/x86_64-linux-gnu/c++/11/bits/c++config.h"
	.file 23 "/usr/include/c++/11/bits/exception_ptr.h"
	.file 24 "/usr/include/c++/11/bits/stl_pair.h"
	.file 25 "/usr/include/c++/11/type_traits"
	.file 26 "/usr/include/c++/11/debug/debug.h"
	.file 27 "/usr/include/c++/11/bits/char_traits.h"
	.file 28 "/usr/include/c++/11/cstdint"
	.file 29 "/usr/include/c++/11/bits/ios_base.h"
	.file 30 "/usr/include/c++/11/bits/ostream.tcc"
	.file 31 "/usr/include/c++/11/fenv.h"
	.file 32 "/usr/include/c++/11/cfenv"
	.file 33 "/usr/include/c++/11/cinttypes"
	.file 34 "/usr/include/c++/11/cuchar"
	.file 35 "/usr/include/c++/11/bits/postypes.h"
	.file 36 "/usr/include/c++/11/bits/uses_allocator.h"
	.file 37 "/usr/include/c++/11/tuple"
	.file 38 "/usr/include/c++/11/functional"
	.file 39 "/usr/include/c++/11/iosfwd"
	.file 40 "/usr/include/c++/11/bits/stl_iterator.h"
	.file 41 "/usr/include/c++/11/bits/regex_automaton.h"
	.file 42 "/usr/include/c++/11/bits/shared_ptr_base.h"
	.file 43 "/usr/include/c++/11/bits/atomic_base.h"
	.file 44 "/usr/include/c++/11/ratio"
	.file 45 "/usr/include/c++/11/bits/std_mutex.h"
	.file 46 "/usr/include/c++/11/bits/regex_constants.h"
	.file 47 "/usr/include/c++/11/bits/regex_error.h"
	.file 48 "/usr/include/c++/11/bits/basic_ios.tcc"
	.file 49 "/usr/include/c++/11/bits/basic_ios.h"
	.file 50 "/usr/include/c++/11/bits/ostream_insert.h"
	.file 51 "/usr/include/c++/11/bits/predefined_ops.h"
	.file 52 "/usr/include/c++/11/ext/concurrence.h"
	.file 53 "/usr/include/math.h"
	.file 54 "/usr/lib/gcc/x86_64-linux-gnu/11/include/stddef.h"
	.file 55 "/usr/include/stdlib.h"
	.file 56 "/usr/include/x86_64-linux-gnu/bits/types/clock_t.h"
	.file 57 "/usr/include/x86_64-linux-gnu/bits/types/time_t.h"
	.file 58 "/usr/include/x86_64-linux-gnu/bits/stdint-intn.h"
	.file 59 "/usr/include/x86_64-linux-gnu/bits/types/__sigset_t.h"
	.file 60 "/usr/include/x86_64-linux-gnu/bits/setjmp.h"
	.file 61 "/usr/include/x86_64-linux-gnu/bits/types/struct___jmp_buf_tag.h"
	.file 62 "/usr/include/setjmp.h"
	.file 63 "/usr/include/x86_64-linux-gnu/bits/setjmp2.h"
	.file 64 "/usr/include/x86_64-linux-gnu/bits/types/sig_atomic_t.h"
	.file 65 "/usr/include/signal.h"
	.file 66 "/usr/include/unistd.h"
	.file 67 "/usr/lib/gcc/x86_64-linux-gnu/11/include/stdarg.h"
	.file 68 "<built-in>"
	.file 69 "/usr/include/x86_64-linux-gnu/bits/types/__mbstate_t.h"
	.file 70 "/usr/include/x86_64-linux-gnu/bits/types/__fpos_t.h"
	.file 71 "/usr/include/x86_64-linux-gnu/bits/types/__FILE.h"
	.file 72 "/usr/include/x86_64-linux-gnu/bits/types/struct_FILE.h"
	.file 73 "/usr/include/x86_64-linux-gnu/bits/types/FILE.h"
	.file 74 "/usr/include/stdio.h"
	.file 75 "/usr/include/x86_64-linux-gnu/bits/stdio2.h"
	.file 76 "/usr/include/x86_64-linux-gnu/bits/stdio.h"
	.file 77 "/usr/include/x86_64-linux-gnu/bits/stdlib-float.h"
	.file 78 "/usr/include/x86_64-linux-gnu/bits/stdlib-bsearch.h"
	.file 79 "/usr/include/x86_64-linux-gnu/bits/stdlib.h"
	.file 80 "/usr/include/string.h"
	.file 81 "/usr/include/x86_64-linux-gnu/bits/types/struct_tm.h"
	.file 82 "/usr/include/time.h"
	.file 83 "/usr/include/x86_64-linux-gnu/bits/types/wint_t.h"
	.file 84 "/usr/include/x86_64-linux-gnu/bits/types/mbstate_t.h"
	.file 85 "/usr/include/wchar.h"
	.file 86 "/usr/include/x86_64-linux-gnu/bits/wchar2.h"
	.file 87 "/usr/include/x86_64-linux-gnu/bits/wctype-wchar.h"
	.file 88 "/usr/include/wctype.h"
	.file 89 "/usr/include/x86_64-linux-gnu/bits/stdint-uintn.h"
	.file 90 "/usr/include/stdint.h"
	.file 91 "/usr/include/x86_64-linux-gnu/bits/fenv.h"
	.file 92 "/usr/include/inttypes.h"
	.file 93 "/usr/include/uchar.h"
	.file 94 "/usr/include/c++/11/stdlib.h"
	.file 95 "/usr/include/c++/11/new"
	.file 96 "/usr/include/c++/11/system_error"
	.file 97 "/usr/include/c++/11/future"
	.section	.note.GNU-stack,"",@progbits
	.section	.note.gnu.property,"a"
	.align 8
	.long	1f - 0f
	.long	4f - 1f
	.long	5
0:
	.string	"GNU"
1:
	.align 8
	.long	0xc0000002
	.long	3f - 2f
2:
	.long	0x3
3:
	.align 8
4:
